target datalayout = "e-m:e-p270:32:32-p271:32:32-p272:64:64-i64:64-i128:128-f80:128-n8:16:32:64-S128"
target triple = "x86_64-unknown-linux-gnu"

; Function Attrs: mustprogress nounwind uwtable
define linkonce_odr noundef double @_ZNSt14numeric_limitsIdE7epsilonEv() #5 comdat align 2 {
entry:
  ret double 0x3CB0000000000000
}

; Function Attrs: inlinehint mustprogress nounwind uwtable
define linkonce_odr noundef zeroext i1 @_ZN8QuantLib5closeEdd(double noundef %x, double noundef %y) #3 comdat {
entry:
  %retval = alloca i1, align 1
  %x.addr = alloca double, align 8
  %y.addr = alloca double, align 8
  %diff = alloca double, align 8
  %tolerance = alloca double, align 8
  %cleanup.dest.slot = alloca i32, align 4
  store double %x, ptr %x.addr, align 8, !tbaa !3
  store double %y, ptr %y.addr, align 8, !tbaa !3
  %0 = load double, ptr %x.addr, align 8, !tbaa !3
  %1 = load double, ptr %y.addr, align 8, !tbaa !3
  %cmp = fcmp oeq double %0, %1
  br i1 %cmp, label %if.then, label %if.end

if.then:                                          ; preds = %entry
  store i1 true, ptr %retval, align 1
  br label %return

if.end:                                           ; preds = %entry
  call void @llvm.lifetime.start.p0(i64 8, ptr %diff) #13
  %2 = load double, ptr %x.addr, align 8, !tbaa !3
  %3 = load double, ptr %y.addr, align 8, !tbaa !3
  %sub = fsub double %2, %3
  %4 = call double @llvm.fabs.f64(double %sub)
  store double %4, ptr %diff, align 8, !tbaa !3
  call void @llvm.lifetime.start.p0(i64 8, ptr %tolerance) #13
  store double 0x3D05000000000000, ptr %tolerance, align 8, !tbaa !3
  %5 = load double, ptr %x.addr, align 8, !tbaa !3
  %cmp1 = fcmp oeq double %5, 0.000000e+00
  br i1 %cmp1, label %if.then3, label %lor.lhs.false

lor.lhs.false:                                    ; preds = %if.end
  %6 = load double, ptr %y.addr, align 8, !tbaa !3
  %cmp2 = fcmp oeq double %6, 0.000000e+00
  br i1 %cmp2, label %if.then3, label %if.end5

if.then3:                                         ; preds = %lor.lhs.false, %if.end
  %7 = load double, ptr %diff, align 8, !tbaa !3
  %cmp4 = fcmp olt double %7, 0x3A1B900000000000
  store i1 %cmp4, ptr %retval, align 1
  store i32 1, ptr %cleanup.dest.slot, align 4
  br label %cleanup

if.end5:                                          ; preds = %lor.lhs.false
  %8 = load double, ptr %diff, align 8, !tbaa !3
  %9 = load double, ptr %x.addr, align 8, !tbaa !3
  %10 = call double @llvm.fabs.f64(double %9)
  %mul = fmul double 0x3D05000000000000, %10
  %cmp6 = fcmp ole double %8, %mul
  br i1 %cmp6, label %land.rhs, label %land.end

land.rhs:                                         ; preds = %if.end5
  %11 = load double, ptr %diff, align 8, !tbaa !3
  %12 = load double, ptr %y.addr, align 8, !tbaa !3
  %13 = call double @llvm.fabs.f64(double %12)
  %mul7 = fmul double 0x3D05000000000000, %13
  %cmp8 = fcmp ole double %11, %mul7
  br label %land.end

land.end:                                         ; preds = %land.rhs, %if.end5
  %14 = phi i1 [ false, %if.end5 ], [ %cmp8, %land.rhs ]
  store i1 %14, ptr %retval, align 1
  store i32 1, ptr %cleanup.dest.slot, align 4
  br label %cleanup

cleanup:                                          ; preds = %land.end, %if.then3
  call void @llvm.lifetime.end.p0(i64 8, ptr %tolerance) #13
  call void @llvm.lifetime.end.p0(i64 8, ptr %diff) #13
  br label %return

return:                                           ; preds = %cleanup, %if.then
  %15 = load i1, ptr %retval, align 1
  ret i1 %15
}

; Function Attrs: mustprogress uwtable
define noundef double @_ZN8QuantLib29unsafeSabrLogNormalVolatilityEddddddd(double noundef %strike, double noundef %forward, double noundef %expiryTime, double noundef %alpha, double noundef %beta, double noundef %nu, double noundef %rho) #0 {
entry:
  %strike.addr = alloca double, align 8
  %forward.addr = alloca double, align 8
  %expiryTime.addr = alloca double, align 8
  %alpha.addr = alloca double, align 8
  %beta.addr = alloca double, align 8
  %nu.addr = alloca double, align 8
  %rho.addr = alloca double, align 8
  %oneMinusBeta = alloca double, align 8
  %A = alloca double, align 8
  %sqrtA = alloca double, align 8
  %logM = alloca double, align 8
  %epsilon = alloca double, align 8
  %z = alloca double, align 8
  %B = alloca double, align 8
  %C = alloca double, align 8
  %tmp = alloca double, align 8
  %xx = alloca double, align 8
  %D = alloca double, align 8
  %d = alloca double, align 8
  %multiplier = alloca double, align 8
  store double %strike, ptr %strike.addr, align 8, !tbaa !3
  store double %forward, ptr %forward.addr, align 8, !tbaa !3
  store double %expiryTime, ptr %expiryTime.addr, align 8, !tbaa !3
  store double %alpha, ptr %alpha.addr, align 8, !tbaa !3
  store double %beta, ptr %beta.addr, align 8, !tbaa !3
  store double %nu, ptr %nu.addr, align 8, !tbaa !3
  store double %rho, ptr %rho.addr, align 8, !tbaa !3
  call void @llvm.lifetime.start.p0(i64 8, ptr %oneMinusBeta) #13
  %0 = load double, ptr %beta.addr, align 8, !tbaa !3
  %sub = fsub double 1.000000e+00, %0
  store double %sub, ptr %oneMinusBeta, align 8, !tbaa !3
  call void @llvm.lifetime.start.p0(i64 8, ptr %A) #13
  %1 = load double, ptr %forward.addr, align 8, !tbaa !3
  %2 = load double, ptr %strike.addr, align 8, !tbaa !3
  %mul = fmul double %1, %2
  %3 = load double, ptr %oneMinusBeta, align 8, !tbaa !3
  %call = call double @pow(double noundef %mul, double noundef %3) #13, !tbaa !7
  store double %call, ptr %A, align 8, !tbaa !3
  call void @llvm.lifetime.start.p0(i64 8, ptr %sqrtA) #13
  %4 = load double, ptr %A, align 8, !tbaa !3
  %call1 = call double @sqrt(double noundef %4) #13, !tbaa !7
  store double %call1, ptr %sqrtA, align 8, !tbaa !3
  call void @llvm.lifetime.start.p0(i64 8, ptr %logM) #13
  %5 = load double, ptr %forward.addr, align 8, !tbaa !3
  %6 = load double, ptr %strike.addr, align 8, !tbaa !3
  %call2 = call noundef zeroext i1 @_ZN8QuantLib5closeEdd(double noundef %5, double noundef %6)
  br i1 %call2, label %if.else, label %if.then

if.then:                                          ; preds = %entry
  %7 = load double, ptr %forward.addr, align 8, !tbaa !3
  %8 = load double, ptr %strike.addr, align 8, !tbaa !3
  %div = fdiv double %7, %8
  %call3 = call double @log(double noundef %div) #13, !tbaa !7
  store double %call3, ptr %logM, align 8, !tbaa !3
  br label %if.end

if.else:                                          ; preds = %entry
  call void @llvm.lifetime.start.p0(i64 8, ptr %epsilon) #13
  %9 = load double, ptr %forward.addr, align 8, !tbaa !3
  %10 = load double, ptr %strike.addr, align 8, !tbaa !3
  %sub4 = fsub double %9, %10
  %11 = load double, ptr %strike.addr, align 8, !tbaa !3
  %div5 = fdiv double %sub4, %11
  store double %div5, ptr %epsilon, align 8, !tbaa !3
  %12 = load double, ptr %epsilon, align 8, !tbaa !3
  %13 = load double, ptr %epsilon, align 8, !tbaa !3
  %mul6 = fmul double 5.000000e-01, %13
  %14 = load double, ptr %epsilon, align 8, !tbaa !3
  %neg = fneg double %mul6
  %15 = call double @llvm.fmuladd.f64(double %neg, double %14, double %12)
  store double %15, ptr %logM, align 8, !tbaa !3
  call void @llvm.lifetime.end.p0(i64 8, ptr %epsilon) #13
  br label %if.end

if.end:                                           ; preds = %if.else, %if.then
  call void @llvm.lifetime.start.p0(i64 8, ptr %z) #13
  %16 = load double, ptr %nu.addr, align 8, !tbaa !3
  %17 = load double, ptr %alpha.addr, align 8, !tbaa !3
  %div8 = fdiv double %16, %17
  %18 = load double, ptr %sqrtA, align 8, !tbaa !3
  %mul9 = fmul double %div8, %18
  %19 = load double, ptr %logM, align 8, !tbaa !3
  %mul10 = fmul double %mul9, %19
  store double %mul10, ptr %z, align 8, !tbaa !3
  call void @llvm.lifetime.start.p0(i64 8, ptr %B) #13
  %20 = load double, ptr %rho.addr, align 8, !tbaa !3
  %mul11 = fmul double 2.000000e+00, %20
  %21 = load double, ptr %z, align 8, !tbaa !3
  %neg13 = fneg double %mul11
  %22 = call double @llvm.fmuladd.f64(double %neg13, double %21, double 1.000000e+00)
  %23 = load double, ptr %z, align 8, !tbaa !3
  %24 = load double, ptr %z, align 8, !tbaa !3
  %25 = call double @llvm.fmuladd.f64(double %23, double %24, double %22)
  store double %25, ptr %B, align 8, !tbaa !3
  call void @llvm.lifetime.start.p0(i64 8, ptr %C) #13
  %26 = load double, ptr %oneMinusBeta, align 8, !tbaa !3
  %27 = load double, ptr %oneMinusBeta, align 8, !tbaa !3
  %mul15 = fmul double %26, %27
  %28 = load double, ptr %logM, align 8, !tbaa !3
  %mul16 = fmul double %mul15, %28
  %29 = load double, ptr %logM, align 8, !tbaa !3
  %mul17 = fmul double %mul16, %29
  store double %mul17, ptr %C, align 8, !tbaa !3
  call void @llvm.lifetime.start.p0(i64 8, ptr %tmp) #13
  %30 = load double, ptr %B, align 8, !tbaa !3
  %call18 = call double @sqrt(double noundef %30) #13, !tbaa !7
  %31 = load double, ptr %z, align 8, !tbaa !3
  %add = fadd double %call18, %31
  %32 = load double, ptr %rho.addr, align 8, !tbaa !3
  %sub19 = fsub double %add, %32
  %33 = load double, ptr %rho.addr, align 8, !tbaa !3
  %sub20 = fsub double 1.000000e+00, %33
  %div21 = fdiv double %sub19, %sub20
  store double %div21, ptr %tmp, align 8, !tbaa !3
  call void @llvm.lifetime.start.p0(i64 8, ptr %xx) #13
  %34 = load double, ptr %tmp, align 8, !tbaa !3
  %call22 = call double @log(double noundef %34) #13, !tbaa !7
  store double %call22, ptr %xx, align 8, !tbaa !3
  call void @llvm.lifetime.start.p0(i64 8, ptr %D) #13
  %35 = load double, ptr %sqrtA, align 8, !tbaa !3
  %36 = load double, ptr %C, align 8, !tbaa !3
  %div23 = fdiv double %36, 2.400000e+01
  %add24 = fadd double 1.000000e+00, %div23
  %37 = load double, ptr %C, align 8, !tbaa !3
  %38 = load double, ptr %C, align 8, !tbaa !3
  %mul25 = fmul double %37, %38
  %div26 = fdiv double %mul25, 1.920000e+03
  %add27 = fadd double %add24, %div26
  %mul28 = fmul double %35, %add27
  store double %mul28, ptr %D, align 8, !tbaa !3
  call void @llvm.lifetime.start.p0(i64 8, ptr %d) #13
  %39 = load double, ptr %expiryTime.addr, align 8, !tbaa !3
  %40 = load double, ptr %oneMinusBeta, align 8, !tbaa !3
  %41 = load double, ptr %oneMinusBeta, align 8, !tbaa !3
  %mul29 = fmul double %40, %41
  %42 = load double, ptr %alpha.addr, align 8, !tbaa !3
  %mul30 = fmul double %mul29, %42
  %43 = load double, ptr %alpha.addr, align 8, !tbaa !3
  %mul31 = fmul double %mul30, %43
  %44 = load double, ptr %A, align 8, !tbaa !3
  %mul32 = fmul double 2.400000e+01, %44
  %div33 = fdiv double %mul31, %mul32
  %45 = load double, ptr %rho.addr, align 8, !tbaa !3
  %mul34 = fmul double 2.500000e-01, %45
  %46 = load double, ptr %beta.addr, align 8, !tbaa !3
  %mul35 = fmul double %mul34, %46
  %47 = load double, ptr %nu.addr, align 8, !tbaa !3
  %mul36 = fmul double %mul35, %47
  %48 = load double, ptr %alpha.addr, align 8, !tbaa !3
  %mul37 = fmul double %mul36, %48
  %49 = load double, ptr %sqrtA, align 8, !tbaa !3
  %div38 = fdiv double %mul37, %49
  %add39 = fadd double %div33, %div38
  %50 = load double, ptr %rho.addr, align 8, !tbaa !3
  %mul40 = fmul double 3.000000e+00, %50
  %51 = load double, ptr %rho.addr, align 8, !tbaa !3
  %neg42 = fneg double %mul40
  %52 = call double @llvm.fmuladd.f64(double %neg42, double %51, double 2.000000e+00)
  %53 = load double, ptr %nu.addr, align 8, !tbaa !3
  %54 = load double, ptr %nu.addr, align 8, !tbaa !3
  %mul43 = fmul double %53, %54
  %div44 = fdiv double %mul43, 2.400000e+01
  %55 = call double @llvm.fmuladd.f64(double %52, double %div44, double %add39)
  %56 = call double @llvm.fmuladd.f64(double %39, double %55, double 1.000000e+00)
  store double %56, ptr %d, align 8, !tbaa !3
  call void @llvm.lifetime.start.p0(i64 8, ptr %multiplier) #13
  %57 = load double, ptr %z, align 8, !tbaa !3
  %58 = load double, ptr %z, align 8, !tbaa !3
  %mul47 = fmul double %57, %58
  %59 = call double @llvm.fabs.f64(double %mul47)
  %call48 = call noundef double @_ZNSt14numeric_limitsIdE7epsilonEv() #13
  %mul49 = fmul double %call48, 1.000000e+01
  %cmp = fcmp ogt double %59, %mul49
  br i1 %cmp, label %if.then50, label %if.else52

if.then50:                                        ; preds = %if.end
  %60 = load double, ptr %z, align 8, !tbaa !3
  %61 = load double, ptr %xx, align 8, !tbaa !3
  %div51 = fdiv double %60, %61
  store double %div51, ptr %multiplier, align 8, !tbaa !3
  br label %if.end62

if.else52:                                        ; preds = %if.end
  %62 = load double, ptr %rho.addr, align 8, !tbaa !3
  %mul53 = fmul double 5.000000e-01, %62
  %63 = load double, ptr %z, align 8, !tbaa !3
  %neg55 = fneg double %mul53
  %64 = call double @llvm.fmuladd.f64(double %neg55, double %63, double 1.000000e+00)
  %65 = load double, ptr %rho.addr, align 8, !tbaa !3
  %mul56 = fmul double 3.000000e+00, %65
  %66 = load double, ptr %rho.addr, align 8, !tbaa !3
  %67 = call double @llvm.fmuladd.f64(double %mul56, double %66, double -2.000000e+00)
  %68 = load double, ptr %z, align 8, !tbaa !3
  %mul58 = fmul double %67, %68
  %69 = load double, ptr %z, align 8, !tbaa !3
  %mul59 = fmul double %mul58, %69
  %div60 = fdiv double %mul59, 1.200000e+01
  %sub61 = fsub double %64, %div60
  store double %sub61, ptr %multiplier, align 8, !tbaa !3
  br label %if.end62

if.end62:                                         ; preds = %if.else52, %if.then50
  %70 = load double, ptr %alpha.addr, align 8, !tbaa !3
  %71 = load double, ptr %D, align 8, !tbaa !3
  %div63 = fdiv double %70, %71
  %72 = load double, ptr %multiplier, align 8, !tbaa !3
  %mul64 = fmul double %div63, %72
  %73 = load double, ptr %d, align 8, !tbaa !3
  %mul65 = fmul double %mul64, %73
  call void @llvm.lifetime.end.p0(i64 8, ptr %multiplier) #13
  call void @llvm.lifetime.end.p0(i64 8, ptr %d) #13
  call void @llvm.lifetime.end.p0(i64 8, ptr %D) #13
  call void @llvm.lifetime.end.p0(i64 8, ptr %xx) #13
  call void @llvm.lifetime.end.p0(i64 8, ptr %tmp) #13
  call void @llvm.lifetime.end.p0(i64 8, ptr %C) #13
  call void @llvm.lifetime.end.p0(i64 8, ptr %B) #13
  call void @llvm.lifetime.end.p0(i64 8, ptr %z) #13
  call void @llvm.lifetime.end.p0(i64 8, ptr %logM) #13
  call void @llvm.lifetime.end.p0(i64 8, ptr %sqrtA) #13
  call void @llvm.lifetime.end.p0(i64 8, ptr %A) #13
  call void @llvm.lifetime.end.p0(i64 8, ptr %oneMinusBeta) #13
  ret double %mul65
}