; Function Attrs: mustprogress nofree nounwind willreturn memory(write) uwtable
define noundef double @_ZN8QuantLib29unsafeSabrLogNormalVolatilityEddddddd(double noundef %strike, double noundef %forward, double noundef %expiryTime, double noundef %alpha, double noundef %beta, double noundef %nu, double noundef %rho) local_unnamed_addr #0 {
entry:
  %sub = fsub double 1.000000e+00, %beta
  %mul = fmul double %strike, %forward
  %call = tail call double @pow(double noundef %mul, double noundef %sub) #17, !tbaa !3
  %call1 = tail call double @sqrt(double noundef %call) #17, !tbaa !3
  %cmp.i = fcmp oeq double %forward, %strike
  %.pre = fsub double %forward, %strike
  br i1 %cmp.i, label %if.else, label %if.end.i

if.end.i:                                         ; preds = %entry
  %0 = tail call double @llvm.fabs.f64(double %.pre)
  %cmp1.i = fcmp oeq double %forward, 0.000000e+00
  %cmp2.i = fcmp oeq double %strike, 0.000000e+00
  %or.cond.i = or i1 %cmp2.i, %cmp1.i
  br i1 %or.cond.i, label %if.then3.i, label %_ZN8QuantLib5closeEdd.exit

if.then3.i:                                       ; preds = %if.end.i
  %cmp4.i = fcmp olt double %0, 0x3A1B900000000000
  br i1 %cmp4.i, label %if.else, label %if.then

_ZN8QuantLib5closeEdd.exit:                       ; preds = %if.end.i
  %1 = tail call double @llvm.fabs.f64(double %forward)
  %mul.i = fmul double %1, 0x3D05000000000000
  %cmp6.i = fcmp ole double %0, %mul.i
  %2 = tail call double @llvm.fabs.f64(double %strike)
  %mul7.i = fmul double %2, 0x3D05000000000000
  %cmp8.i = fcmp ole double %0, %mul7.i
  %3 = and i1 %cmp6.i, %cmp8.i
  br i1 %3, label %if.else, label %if.then

if.then:                                          ; preds = %if.then3.i, %_ZN8QuantLib5closeEdd.exit
  %div = fdiv double %forward, %strike
  %call3 = tail call double @log(double noundef %div) #17, !tbaa !3
  br label %if.end

if.else:                                          ; preds = %entry, %if.then3.i, %_ZN8QuantLib5closeEdd.exit
  %div5 = fdiv double %.pre, %strike
  %neg = fmul double %div5, -5.000000e-01
  %4 = tail call double @llvm.fmuladd.f64(double %neg, double %div5, double %div5)
  br label %if.end

if.end:                                           ; preds = %if.else, %if.then
  %logM.0 = phi double [ %4, %if.else ], [ %call3, %if.then ]
  %div8 = fdiv double %nu, %alpha
  %mul9 = fmul double %div8, %call1
  %mul10 = fmul double %mul9, %logM.0
  %neg13 = fmul double %rho, -2.000000e+00
  %5 = tail call double @llvm.fmuladd.f64(double %neg13, double %mul10, double 1.000000e+00)
  %6 = tail call double @llvm.fmuladd.f64(double %mul10, double %mul10, double %5)
  %call18 = tail call double @sqrt(double noundef %6) #17, !tbaa !3
  %add = fadd double %call18, %mul10
  %sub19 = fsub double %add, %rho
  %sub20 = fsub double 1.000000e+00, %rho
  %div21 = fdiv double %sub19, %sub20
  %call22 = tail call double @log(double noundef %div21) #17, !tbaa !3
  %mul40 = fmul double %rho, 3.000000e+00
  %mul47 = fmul double %mul10, %mul10
  %7 = tail call double @llvm.fabs.f64(double %mul47)
  %cmp = fcmp ogt double %7, 0x3CE4000000000000
  br i1 %cmp, label %if.then50, label %if.else52

if.then50:                                        ; preds = %if.end
  %div51 = fdiv double %mul10, %call22
  br label %if.end62

if.else52:                                        ; preds = %if.end
  %neg55 = fmul double %rho, -5.000000e-01
  %8 = tail call double @llvm.fmuladd.f64(double %neg55, double %mul10, double 1.000000e+00)
  %9 = tail call double @llvm.fmuladd.f64(double %mul40, double %rho, double -2.000000e+00)
  %mul58 = fmul double %9, %mul10
  %mul59 = fmul double %mul10, %mul58
  %div60 = fdiv double %mul59, 1.200000e+01
  %sub61 = fsub double %8, %div60
  br label %if.end62

if.end62:                                         ; preds = %if.else52, %if.then50
  %multiplier.0 = phi double [ %div51, %if.then50 ], [ %sub61, %if.else52 ]
  %neg42 = fneg double %mul40
  %10 = tail call double @llvm.fmuladd.f64(double %neg42, double %rho, double 2.000000e+00)
  %mul43 = fmul double %nu, %nu
  %div44 = fdiv double %mul43, 2.400000e+01
  %mul15 = fmul double %sub, %sub
  %mul30 = fmul double %alpha, %mul15
  %mul31 = fmul double %alpha, %mul30
  %mul32 = fmul double %call, 2.400000e+01
  %div33 = fdiv double %mul31, %mul32
  %mul34 = fmul double %rho, 2.500000e-01
  %mul35 = fmul double %beta, %mul34
  %mul36 = fmul double %nu, %mul35
  %mul37 = fmul double %alpha, %mul36
  %div38 = fdiv double %mul37, %call1
  %add39 = fadd double %div33, %div38
  %11 = tail call double @llvm.fmuladd.f64(double %10, double %div44, double %add39)
  %12 = tail call double @llvm.fmuladd.f64(double %expiryTime, double %11, double 1.000000e+00)
  %mul16 = fmul double %mul15, %logM.0
  %mul17 = fmul double %logM.0, %mul16
  %div23 = fdiv double %mul17, 2.400000e+01
  %add24 = fadd double %div23, 1.000000e+00
  %mul25 = fmul double %mul17, %mul17
  %div26 = fdiv double %mul25, 1.920000e+03
  %add27 = fadd double %add24, %div26
  %mul28 = fmul double %call1, %add27
  %div63 = fdiv double %alpha, %mul28
  %mul64 = fmul double %div63, %multiplier.0
  %mul65 = fmul double %12, %mul64
  ret double %mul65
}